target datalayout = "e-m:e-p270:32:32-p271:32:32-p272:64:64-i64:64-i128:128-f80:128-n8:16:32:64-S128"
target triple = "x86_64-pc-linux-gnu"

; Function Attrs: nounwind uwtable
define internal void @filter16_complex_high(ptr noundef %0, ptr noundef %1, ptr noundef %2, ptr noundef %3, i32 noundef %4) #2 {
  %6 = alloca ptr, align 8
  %7 = alloca ptr, align 8
  %8 = alloca ptr, align 8
  %9 = alloca ptr, align 8
  %10 = alloca i32, align 4
  %11 = alloca [5 x ptr], align 16
  %12 = alloca [5 x ptr], align 16
  %13 = alloca i32, align 4
  store ptr %0, ptr %6, align 8, !tbaa !66
  store ptr %1, ptr %7, align 8, !tbaa !99
  store ptr %2, ptr %8, align 8, !tbaa !99
  store ptr %3, ptr %9, align 8, !tbaa !100
  store i32 %4, ptr %10, align 4, !tbaa !24
  call void @llvm.lifetime.start.p0(i64 40, ptr %11) #10
  %14 = load ptr, ptr %7, align 8, !tbaa !99
  %15 = getelementptr inbounds ptr, ptr %14, i64 0
  %16 = load ptr, ptr %15, align 8, !tbaa !88
  store ptr %16, ptr %11, align 8, !tbaa !100
  %17 = getelementptr inbounds ptr, ptr %11, i64 1
  %18 = load ptr, ptr %7, align 8, !tbaa !99
  %19 = getelementptr inbounds ptr, ptr %18, i64 1
  %20 = load ptr, ptr %19, align 8, !tbaa !88
  store ptr %20, ptr %17, align 8, !tbaa !100
  %21 = getelementptr inbounds ptr, ptr %11, i64 2
  %22 = load ptr, ptr %7, align 8, !tbaa !99
  %23 = getelementptr inbounds ptr, ptr %22, i64 2
  %24 = load ptr, ptr %23, align 8, !tbaa !88
  store ptr %24, ptr %21, align 8, !tbaa !100
  %25 = getelementptr inbounds ptr, ptr %11, i64 3
  %26 = load ptr, ptr %7, align 8, !tbaa !99
  %27 = getelementptr inbounds ptr, ptr %26, i64 3
  %28 = load ptr, ptr %27, align 8, !tbaa !88
  store ptr %28, ptr %25, align 8, !tbaa !100
  %29 = getelementptr inbounds ptr, ptr %11, i64 4
  %30 = load ptr, ptr %7, align 8, !tbaa !99
  %31 = getelementptr inbounds ptr, ptr %30, i64 4
  %32 = load ptr, ptr %31, align 8, !tbaa !88
  store ptr %32, ptr %29, align 8, !tbaa !100
  call void @llvm.lifetime.start.p0(i64 40, ptr %12) #10
  %33 = load ptr, ptr %8, align 8, !tbaa !99
  %34 = getelementptr inbounds ptr, ptr %33, i64 0
  %35 = load ptr, ptr %34, align 8, !tbaa !88
  store ptr %35, ptr %12, align 8, !tbaa !100
  %36 = getelementptr inbounds ptr, ptr %12, i64 1
  %37 = load ptr, ptr %8, align 8, !tbaa !99
  %38 = getelementptr inbounds ptr, ptr %37, i64 1
  %39 = load ptr, ptr %38, align 8, !tbaa !88
  store ptr %39, ptr %36, align 8, !tbaa !100
  %40 = getelementptr inbounds ptr, ptr %12, i64 2
  %41 = load ptr, ptr %8, align 8, !tbaa !99
  %42 = getelementptr inbounds ptr, ptr %41, i64 2
  %43 = load ptr, ptr %42, align 8, !tbaa !88
  store ptr %43, ptr %40, align 8, !tbaa !100
  %44 = getelementptr inbounds ptr, ptr %12, i64 3
  %45 = load ptr, ptr %8, align 8, !tbaa !99
  %46 = getelementptr inbounds ptr, ptr %45, i64 3
  %47 = load ptr, ptr %46, align 8, !tbaa !88
  store ptr %47, ptr %44, align 8, !tbaa !100
  %48 = getelementptr inbounds ptr, ptr %12, i64 4
  %49 = load ptr, ptr %8, align 8, !tbaa !99
  %50 = getelementptr inbounds ptr, ptr %49, i64 4
  %51 = load ptr, ptr %50, align 8, !tbaa !88
  store ptr %51, ptr %48, align 8, !tbaa !100
  call void @llvm.lifetime.start.p0(i64 4, ptr %13) #10
  %52 = load i32, ptr %10, align 4, !tbaa !24
  %53 = sdiv i32 %52, 2
  store i32 %53, ptr %10, align 4, !tbaa !24
  store i32 0, ptr %13, align 4, !tbaa !24
  br label %54

54:                                               ; preds = %190, %5
  %55 = load i32, ptr %13, align 4, !tbaa !24
  %56 = load i32, ptr %10, align 4, !tbaa !24
  %57 = icmp slt i32 %55, %56
  br i1 %57, label %58, label %193

58:                                               ; preds = %54
  %59 = getelementptr inbounds [5 x ptr], ptr %11, i64 0, i64 0
  %60 = load ptr, ptr %59, align 16, !tbaa !100
  %61 = getelementptr inbounds nuw i16, ptr %60, i32 1
  store ptr %61, ptr %59, align 16, !tbaa !100
  %62 = load i16, ptr %60, align 2, !tbaa !102
  %63 = zext i16 %62 to i32
  %64 = load ptr, ptr %9, align 8, !tbaa !100
  %65 = getelementptr inbounds i16, ptr %64, i64 0
  %66 = load i16, ptr %65, align 2, !tbaa !102
  %67 = sext i16 %66 to i32
  %68 = mul nsw i32 %63, %67
  %69 = load ptr, ptr %6, align 8, !tbaa !66
  %70 = load i32, ptr %69, align 4, !tbaa !24
  %71 = add nsw i32 %70, %68
  store i32 %71, ptr %69, align 4, !tbaa !24
  %72 = getelementptr inbounds [5 x ptr], ptr %12, i64 0, i64 0
  %73 = load ptr, ptr %72, align 16, !tbaa !100
  %74 = getelementptr inbounds nuw i16, ptr %73, i32 1
  store ptr %74, ptr %72, align 16, !tbaa !100
  %75 = load i16, ptr %73, align 2, !tbaa !102
  %76 = zext i16 %75 to i32
  %77 = load ptr, ptr %9, align 8, !tbaa !100
  %78 = getelementptr inbounds i16, ptr %77, i64 0
  %79 = load i16, ptr %78, align 2, !tbaa !102
  %80 = sext i16 %79 to i32
  %81 = mul nsw i32 %76, %80
  %82 = load ptr, ptr %6, align 8, !tbaa !66
  %83 = load i32, ptr %82, align 4, !tbaa !24
  %84 = add nsw i32 %83, %81
  store i32 %84, ptr %82, align 4, !tbaa !24
  %85 = getelementptr inbounds [5 x ptr], ptr %11, i64 0, i64 1
  %86 = load ptr, ptr %85, align 8, !tbaa !100
  %87 = getelementptr inbounds nuw i16, ptr %86, i32 1
  store ptr %87, ptr %85, align 8, !tbaa !100
  %88 = load i16, ptr %86, align 2, !tbaa !102
  %89 = zext i16 %88 to i32
  %90 = load ptr, ptr %9, align 8, !tbaa !100
  %91 = getelementptr inbounds i16, ptr %90, i64 1
  %92 = load i16, ptr %91, align 2, !tbaa !102
  %93 = sext i16 %92 to i32
  %94 = mul nsw i32 %89, %93
  %95 = load ptr, ptr %6, align 8, !tbaa !66
  %96 = load i32, ptr %95, align 4, !tbaa !24
  %97 = add nsw i32 %96, %94
  store i32 %97, ptr %95, align 4, !tbaa !24
  %98 = getelementptr inbounds [5 x ptr], ptr %12, i64 0, i64 1
  %99 = load ptr, ptr %98, align 8, !tbaa !100
  %100 = getelementptr inbounds nuw i16, ptr %99, i32 1
  store ptr %100, ptr %98, align 8, !tbaa !100
  %101 = load i16, ptr %99, align 2, !tbaa !102
  %102 = zext i16 %101 to i32
  %103 = load ptr, ptr %9, align 8, !tbaa !100
  %104 = getelementptr inbounds i16, ptr %103, i64 1
  %105 = load i16, ptr %104, align 2, !tbaa !102
  %106 = sext i16 %105 to i32
  %107 = mul nsw i32 %102, %106
  %108 = load ptr, ptr %6, align 8, !tbaa !66
  %109 = load i32, ptr %108, align 4, !tbaa !24
  %110 = add nsw i32 %109, %107
  store i32 %110, ptr %108, align 4, !tbaa !24
  %111 = getelementptr inbounds [5 x ptr], ptr %11, i64 0, i64 2
  %112 = load ptr, ptr %111, align 16, !tbaa !100
  %113 = getelementptr inbounds nuw i16, ptr %112, i32 1
  store ptr %113, ptr %111, align 16, !tbaa !100
  %114 = load i16, ptr %112, align 2, !tbaa !102
  %115 = zext i16 %114 to i32
  %116 = load ptr, ptr %9, align 8, !tbaa !100
  %117 = getelementptr inbounds i16, ptr %116, i64 2
  %118 = load i16, ptr %117, align 2, !tbaa !102
  %119 = sext i16 %118 to i32
  %120 = mul nsw i32 %115, %119
  %121 = load ptr, ptr %6, align 8, !tbaa !66
  %122 = load i32, ptr %121, align 4, !tbaa !24
  %123 = add nsw i32 %122, %120
  store i32 %123, ptr %121, align 4, !tbaa !24
  %124 = getelementptr inbounds [5 x ptr], ptr %12, i64 0, i64 2
  %125 = load ptr, ptr %124, align 16, !tbaa !100
  %126 = getelementptr inbounds nuw i16, ptr %125, i32 1
  store ptr %126, ptr %124, align 16, !tbaa !100
  %127 = load i16, ptr %125, align 2, !tbaa !102
  %128 = zext i16 %127 to i32
  %129 = load ptr, ptr %9, align 8, !tbaa !100
  %130 = getelementptr inbounds i16, ptr %129, i64 2
  %131 = load i16, ptr %130, align 2, !tbaa !102
  %132 = sext i16 %131 to i32
  %133 = mul nsw i32 %128, %132
  %134 = load ptr, ptr %6, align 8, !tbaa !66
  %135 = load i32, ptr %134, align 4, !tbaa !24
  %136 = add nsw i32 %135, %133
  store i32 %136, ptr %134, align 4, !tbaa !24
  %137 = getelementptr inbounds [5 x ptr], ptr %11, i64 0, i64 3
  %138 = load ptr, ptr %137, align 8, !tbaa !100
  %139 = getelementptr inbounds nuw i16, ptr %138, i32 1
  store ptr %139, ptr %137, align 8, !tbaa !100
  %140 = load i16, ptr %138, align 2, !tbaa !102
  %141 = zext i16 %140 to i32
  %142 = load ptr, ptr %9, align 8, !tbaa !100
  %143 = getelementptr inbounds i16, ptr %142, i64 3
  %144 = load i16, ptr %143, align 2, !tbaa !102
  %145 = sext i16 %144 to i32
  %146 = mul nsw i32 %141, %145
  %147 = load ptr, ptr %6, align 8, !tbaa !66
  %148 = load i32, ptr %147, align 4, !tbaa !24
  %149 = add nsw i32 %148, %146
  store i32 %149, ptr %147, align 4, !tbaa !24
  %150 = getelementptr inbounds [5 x ptr], ptr %12, i64 0, i64 3
  %151 = load ptr, ptr %150, align 8, !tbaa !100
  %152 = getelementptr inbounds nuw i16, ptr %151, i32 1
  store ptr %152, ptr %150, align 8, !tbaa !100
  %153 = load i16, ptr %151, align 2, !tbaa !102
  %154 = zext i16 %153 to i32
  %155 = load ptr, ptr %9, align 8, !tbaa !100
  %156 = getelementptr inbounds i16, ptr %155, i64 3
  %157 = load i16, ptr %156, align 2, !tbaa !102
  %158 = sext i16 %157 to i32
  %159 = mul nsw i32 %154, %158
  %160 = load ptr, ptr %6, align 8, !tbaa !66
  %161 = load i32, ptr %160, align 4, !tbaa !24
  %162 = add nsw i32 %161, %159
  store i32 %162, ptr %160, align 4, !tbaa !24
  %163 = getelementptr inbounds [5 x ptr], ptr %11, i64 0, i64 4
  %164 = load ptr, ptr %163, align 16, !tbaa !100
  %165 = getelementptr inbounds nuw i16, ptr %164, i32 1
  store ptr %165, ptr %163, align 16, !tbaa !100
  %166 = load i16, ptr %164, align 2, !tbaa !102
  %167 = zext i16 %166 to i32
  %168 = load ptr, ptr %9, align 8, !tbaa !100
  %169 = getelementptr inbounds i16, ptr %168, i64 4
  %170 = load i16, ptr %169, align 2, !tbaa !102
  %171 = sext i16 %170 to i32
  %172 = mul nsw i32 %167, %171
  %173 = load ptr, ptr %6, align 8, !tbaa !66
  %174 = load i32, ptr %173, align 4, !tbaa !24
  %175 = add nsw i32 %174, %172
  store i32 %175, ptr %173, align 4, !tbaa !24
  %176 = getelementptr inbounds [5 x ptr], ptr %12, i64 0, i64 4
  %177 = load ptr, ptr %176, align 16, !tbaa !100
  %178 = getelementptr inbounds nuw i16, ptr %177, i32 1
  store ptr %178, ptr %176, align 16, !tbaa !100
  %179 = load i16, ptr %177, align 2, !tbaa !102
  %180 = zext i16 %179 to i32
  %181 = load ptr, ptr %9, align 8, !tbaa !100
  %182 = getelementptr inbounds i16, ptr %181, i64 4
  %183 = load i16, ptr %182, align 2, !tbaa !102
  %184 = sext i16 %183 to i32
  %185 = mul nsw i32 %180, %184
  %186 = load ptr, ptr %6, align 8, !tbaa !66
  %187 = getelementptr inbounds nuw i32, ptr %186, i32 1
  store ptr %187, ptr %6, align 8, !tbaa !66
  %188 = load i32, ptr %186, align 4, !tbaa !24
  %189 = add nsw i32 %188, %185
  store i32 %189, ptr %186, align 4, !tbaa !24
  br label %190

190:                                              ; preds = %58
  %191 = load i32, ptr %13, align 4, !tbaa !24
  %192 = add nsw i32 %191, 1
  store i32 %192, ptr %13, align 4, !tbaa !24
  br label %54, !llvm.loop !112

193:                                              ; preds = %54
  call void @llvm.lifetime.end.p0(i64 4, ptr %13) #10
  call void @llvm.lifetime.end.p0(i64 40, ptr %12) #10
  call void @llvm.lifetime.end.p0(i64 40, ptr %11) #10
  ret void
}