; Function Attrs: nofree norecurse nosync nounwind memory(read, argmem: readwrite, inaccessiblemem: none) uwtable
define internal void @filter16_complex_high(ptr noundef captures(none) %0, ptr noundef readonly captures(none) %1, ptr noundef readonly captures(none) %2, ptr noundef readonly captures(none) %3, i32 noundef %4) #6 {
  %6 = sdiv i32 %4, 2
  %7 = icmp sgt i32 %4, 1
  br i1 %7, label %.lr.ph, label %._crit_edge

.lr.ph:                                           ; preds = %5
  %8 = getelementptr inbounds nuw i8, ptr %2, i64 32
  %9 = load ptr, ptr %8, align 8, !tbaa !78
  %10 = getelementptr inbounds nuw i8, ptr %2, i64 24
  %11 = load ptr, ptr %10, align 8, !tbaa !78
  %12 = getelementptr inbounds nuw i8, ptr %2, i64 16
  %13 = load ptr, ptr %12, align 8, !tbaa !78
  %14 = getelementptr inbounds nuw i8, ptr %2, i64 8
  %15 = load ptr, ptr %14, align 8, !tbaa !78
  %16 = load ptr, ptr %2, align 8, !tbaa !78
  %17 = getelementptr inbounds nuw i8, ptr %1, i64 32
  %18 = load ptr, ptr %17, align 8, !tbaa !78
  %19 = getelementptr inbounds nuw i8, ptr %1, i64 24
  %20 = load ptr, ptr %19, align 8, !tbaa !78
  %21 = getelementptr inbounds nuw i8, ptr %1, i64 16
  %22 = load ptr, ptr %21, align 8, !tbaa !78
  %23 = getelementptr inbounds nuw i8, ptr %1, i64 8
  %24 = load ptr, ptr %23, align 8, !tbaa !78
  %25 = load ptr, ptr %1, align 8, !tbaa !78
  %26 = load i16, ptr %3, align 2, !tbaa !87
  %27 = sext i16 %26 to i32
  %28 = getelementptr inbounds nuw i8, ptr %3, i64 2
  %29 = load i16, ptr %28, align 2, !tbaa !87
  %30 = sext i16 %29 to i32
  %31 = getelementptr inbounds nuw i8, ptr %3, i64 4
  %32 = load i16, ptr %31, align 2, !tbaa !87
  %33 = sext i16 %32 to i32
  %34 = getelementptr inbounds nuw i8, ptr %3, i64 6
  %35 = load i16, ptr %34, align 2, !tbaa !87
  %36 = sext i16 %35 to i32
  %37 = getelementptr inbounds nuw i8, ptr %3, i64 8
  %38 = load i16, ptr %37, align 2, !tbaa !87
  %39 = sext i16 %38 to i32
  br label %40

40:                                               ; preds = %.lr.ph, %40
  %.050 = phi i32 [ 0, %.lr.ph ], [ %93, %40 ]
  %.sroa.0.049 = phi ptr [ %16, %.lr.ph ], [ %47, %40 ]
  %.sroa.5.048 = phi ptr [ %15, %.lr.ph ], [ %57, %40 ]
  %.sroa.8.047 = phi ptr [ %13, %.lr.ph ], [ %67, %40 ]
  %.sroa.11.046 = phi ptr [ %11, %.lr.ph ], [ %77, %40 ]
  %.sroa.14.045 = phi ptr [ %9, %.lr.ph ], [ %87, %40 ]
  %.sroa.02.044 = phi ptr [ %25, %.lr.ph ], [ %41, %40 ]
  %.sroa.53.043 = phi ptr [ %24, %.lr.ph ], [ %52, %40 ]
  %.sroa.84.042 = phi ptr [ %22, %.lr.ph ], [ %62, %40 ]
  %.sroa.115.041 = phi ptr [ %20, %.lr.ph ], [ %72, %40 ]
  %.sroa.146.040 = phi ptr [ %18, %.lr.ph ], [ %82, %40 ]
  %.03839 = phi ptr [ %0, %.lr.ph ], [ %91, %40 ]
  %41 = getelementptr inbounds nuw i8, ptr %.sroa.02.044, i64 2
  %42 = load i16, ptr %.sroa.02.044, align 2, !tbaa !87
  %43 = zext i16 %42 to i32
  %44 = mul nsw i32 %27, %43
  %45 = load i32, ptr %.03839, align 4, !tbaa !58
  %46 = add nsw i32 %44, %45
  %47 = getelementptr inbounds nuw i8, ptr %.sroa.0.049, i64 2
  %48 = load i16, ptr %.sroa.0.049, align 2, !tbaa !87
  %49 = zext i16 %48 to i32
  %50 = mul nsw i32 %49, %27
  %51 = add nsw i32 %50, %46
  %52 = getelementptr inbounds nuw i8, ptr %.sroa.53.043, i64 2
  %53 = load i16, ptr %.sroa.53.043, align 2, !tbaa !87
  %54 = zext i16 %53 to i32
  %55 = mul nsw i32 %30, %54
  %56 = add nsw i32 %55, %51
  %57 = getelementptr inbounds nuw i8, ptr %.sroa.5.048, i64 2
  %58 = load i16, ptr %.sroa.5.048, align 2, !tbaa !87
  %59 = zext i16 %58 to i32
  %60 = mul nsw i32 %59, %30
  %61 = add nsw i32 %60, %56
  %62 = getelementptr inbounds nuw i8, ptr %.sroa.84.042, i64 2
  %63 = load i16, ptr %.sroa.84.042, align 2, !tbaa !87
  %64 = zext i16 %63 to i32
  %65 = mul nsw i32 %33, %64
  %66 = add nsw i32 %65, %61
  %67 = getelementptr inbounds nuw i8, ptr %.sroa.8.047, i64 2
  %68 = load i16, ptr %.sroa.8.047, align 2, !tbaa !87
  %69 = zext i16 %68 to i32
  %70 = mul nsw i32 %69, %33
  %71 = add nsw i32 %70, %66
  %72 = getelementptr inbounds nuw i8, ptr %.sroa.115.041, i64 2
  %73 = load i16, ptr %.sroa.115.041, align 2, !tbaa !87
  %74 = zext i16 %73 to i32
  %75 = mul nsw i32 %36, %74
  %76 = add nsw i32 %75, %71
  %77 = getelementptr inbounds nuw i8, ptr %.sroa.11.046, i64 2
  %78 = load i16, ptr %.sroa.11.046, align 2, !tbaa !87
  %79 = zext i16 %78 to i32
  %80 = mul nsw i32 %79, %36
  %81 = add nsw i32 %80, %76
  %82 = getelementptr inbounds nuw i8, ptr %.sroa.146.040, i64 2
  %83 = load i16, ptr %.sroa.146.040, align 2, !tbaa !87
  %84 = zext i16 %83 to i32
  %85 = mul nsw i32 %39, %84
  %86 = add nsw i32 %85, %81
  %87 = getelementptr inbounds nuw i8, ptr %.sroa.14.045, i64 2
  %88 = load i16, ptr %.sroa.14.045, align 2, !tbaa !87
  %89 = zext i16 %88 to i32
  %90 = mul nsw i32 %89, %39
  %91 = getelementptr inbounds nuw i8, ptr %.03839, i64 4
  %92 = add nsw i32 %90, %86
  store i32 %92, ptr %.03839, align 4, !tbaa !58
  %93 = add nuw nsw i32 %.050, 1
  %exitcond.not = icmp eq i32 %93, %6
  br i1 %exitcond.not, label %._crit_edge, label %40, !llvm.loop !97

._crit_edge:                                      ; preds = %40, %5
  ret void
}